target datalayout = "e-m:e-p270:32:32-p271:32:32-p272:64:64-i64:64-i128:128-f80:128-n8:16:32:64-S128"
target triple = "x86_64-pc-linux-gnu"

%"class.std::shared_ptr" = type { %"class.std::__shared_ptr" }
%"class.std::__shared_ptr" = type { ptr, %"class.std::__shared_count" }
%"class.std::__shared_count" = type { ptr }
%"class.std::shared_ptr.2" = type { %"class.std::__shared_ptr.3" }
%"class.std::__shared_ptr.3" = type { ptr, %"class.std::__shared_count" }
%"class.std::filesystem::__cxx11::path" = type { %"class.std::__cxx11::basic_string", %"struct.std::filesystem::__cxx11::path::_List" }
%"class.std::__cxx11::basic_string" = type { %"struct.std::__cxx11::basic_string<char>::_Alloc_hider", i64, %union.anon }
%"struct.std::__cxx11::basic_string<char>::_Alloc_hider" = type { ptr }
%union.anon = type { i64, [8 x i8] }
%"struct.std::filesystem::__cxx11::path::_List" = type { %"class.std::unique_ptr" }
%"class.std::unique_ptr" = type { %"struct.std::__uniq_ptr_data" }
%"struct.std::__uniq_ptr_data" = type { %"class.std::__uniq_ptr_impl" }
%"class.std::__uniq_ptr_impl" = type { %"class.std::tuple" }
%"class.std::tuple" = type { %"struct.std::_Tuple_impl" }
%"struct.std::_Tuple_impl" = type { %"struct.std::_Head_base.1" }
%"struct.std::_Head_base.1" = type { ptr }
%"class.std::allocator" = type { i8 }
%struct.gmx_cpp = type { %"class.std::shared_ptr", %"class.std::shared_ptr.2", %"class.std::unordered_set", ptr, %"class.std::filesystem::__cxx11::path", %"class.std::filesystem::__cxx11::path", %"class.std::filesystem::__cxx11::path", %"class.std::__cxx11::basic_string", i32, %"class.std::vector", ptr, ptr }
%"class.std::unordered_set" = type { %"class.std::_Hashtable" }
%"class.std::_Hashtable" = type { ptr, i64, %"struct.std::__detail::_Hash_node_base", i64, %"struct.std::__detail::_Prime_rehash_policy", ptr }
%"struct.std::__detail::_Hash_node_base" = type { ptr }
%"struct.std::__detail::_Prime_rehash_policy" = type { float, i64 }
%"class.std::vector" = type { %"struct.std::_Vector_base" }
%"struct.std::_Vector_base" = type { %"struct.std::_Vector_base<int, std::allocator<int>>::_Vector_impl" }
%"struct.std::_Vector_base<int, std::allocator<int>>::_Vector_impl" = type { %"struct.std::_Vector_base<int, std::allocator<int>>::_Vector_impl_data" }
%"struct.std::_Vector_base<int, std::allocator<int>>::_Vector_impl_data" = type { ptr, ptr, ptr }

@.str.2 = private unnamed_addr constant [1 x i8] zeroinitializer, align 1
@__const._Z9cpp_errorPP7gmx_cppi.ecpp = private unnamed_addr constant [10 x ptr] [ptr @.str.26, ptr @.str.27, ptr @.str.28, ptr @.str.29, ptr @.str.30, ptr @.str.31, ptr @.str.32, ptr @.str.33, ptr @.str.34, ptr @.str.35], align 16
@.str.36 = private unnamed_addr constant [43 x i8] c"%s - File %s, line %d\0ALast line read:\0A'%s'\00", align 1
@.str.37 = private unnamed_addr constant [8 x i8] c"unknown\00", align 1

; Function Attrs: mustprogress uwtable
define linkonce_odr void @_ZNKSt10filesystem7__cxx114path6stringIcSt11char_traitsIcESaIcEEENSt7__cxx1112basic_stringIT_T0_T1_EERKSA_(ptr dead_on_unwind noalias writable sret(%"class.std::__cxx11::basic_string") align 8 %0, ptr noundef nonnull align 8 dereferenceable(40) %1, ptr noundef nonnull align 1 dereferenceable(1) %2) #0 comdat align 2 {
  %4 = alloca ptr, align 8
  %5 = alloca ptr, align 8
  %6 = alloca ptr, align 8
  store ptr %0, ptr %4, align 8
  store ptr %1, ptr %5, align 8
  store ptr %2, ptr %6, align 8
  %7 = load ptr, ptr %5, align 8
  %8 = getelementptr inbounds %"class.std::filesystem::__cxx11::path", ptr %7, i32 0, i32 0
  %9 = call noundef ptr @_ZNKSt7__cxx1112basic_stringIcSt11char_traitsIcESaIcEE5c_strEv(ptr noundef nonnull align 8 dereferenceable(32) %8) #14
  %10 = getelementptr inbounds %"class.std::filesystem::__cxx11::path", ptr %7, i32 0, i32 0
  %11 = call noundef i64 @_ZNKSt7__cxx1112basic_stringIcSt11char_traitsIcESaIcEE6lengthEv(ptr noundef nonnull align 8 dereferenceable(32) %10) #14
  %12 = load ptr, ptr %6, align 8
  call void @_ZNSt7__cxx1112basic_stringIcSt11char_traitsIcESaIcEEC1EPKcmRKS3_(ptr noundef nonnull align 8 dereferenceable(32) %0, ptr noundef %9, i64 noundef %11, ptr noundef nonnull align 1 dereferenceable(1) %12)
  ret void
}

; Function Attrs: mustprogress uwtable
define linkonce_odr void @_ZNKSt10filesystem7__cxx114path6stringEv(ptr dead_on_unwind noalias writable sret(%"class.std::__cxx11::basic_string") align 8 %0, ptr noundef nonnull align 8 dereferenceable(40) %1) #0 comdat align 2 personality ptr @__gxx_personality_v0 {
  %3 = alloca ptr, align 8
  %4 = alloca ptr, align 8
  %5 = alloca %"class.std::allocator", align 1
  %6 = alloca ptr, align 8
  %7 = alloca i32, align 4
  store ptr %0, ptr %3, align 8
  store ptr %1, ptr %4, align 8
  %8 = load ptr, ptr %4, align 8
  call void @_ZNSaIcEC1Ev(ptr noundef nonnull align 1 dereferenceable(1) %5) #14
  invoke void @_ZNKSt10filesystem7__cxx114path6stringIcSt11char_traitsIcESaIcEEENSt7__cxx1112basic_stringIT_T0_T1_EERKSA_(ptr dead_on_unwind writable sret(%"class.std::__cxx11::basic_string") align 8 %0, ptr noundef nonnull align 8 dereferenceable(40) %8, ptr noundef nonnull align 1 dereferenceable(1) %5)
          to label %9 unwind label %10

9:                                                ; preds = %2
  call void @_ZNSaIcED1Ev(ptr noundef nonnull align 1 dereferenceable(1) %5) #14
  ret void

10:                                               ; preds = %2
  %11 = landingpad { ptr, i32 }
          cleanup
  %12 = extractvalue { ptr, i32 } %11, 0
  store ptr %12, ptr %6, align 8
  %13 = extractvalue { ptr, i32 } %11, 1
  store i32 %13, ptr %7, align 4
  call void @_ZNSaIcED1Ev(ptr noundef nonnull align 1 dereferenceable(1) %5) #14
  br label %14

14:                                               ; preds = %10
  %15 = load ptr, ptr %6, align 8
  %16 = load i32, ptr %7, align 4
  %17 = insertvalue { ptr, i32 } poison, ptr %15, 0
  %18 = insertvalue { ptr, i32 } %17, i32 %16, 1
  resume { ptr, i32 } %18
}

; Function Attrs: mustprogress nounwind uwtable
define linkonce_odr noundef zeroext i1 @_ZNKSt10filesystem7__cxx114path5emptyEv(ptr noundef nonnull align 8 dereferenceable(40) %0) #2 comdat align 2 {
  %2 = alloca ptr, align 8
  store ptr %0, ptr %2, align 8
  %3 = load ptr, ptr %2, align 8
  %4 = getelementptr inbounds %"class.std::filesystem::__cxx11::path", ptr %3, i32 0, i32 0
  %5 = call noundef zeroext i1 @_ZNKSt7__cxx1112basic_stringIcSt11char_traitsIcESaIcEE5emptyEv(ptr noundef nonnull align 8 dereferenceable(32) %4) #14
  ret i1 %5
}

; Function Attrs: mustprogress uwtable
define noundef ptr @_Z9cpp_errorPP7gmx_cppi(ptr noundef %0, i32 noundef %1) #0 {
  %3 = alloca ptr, align 8
  %4 = alloca ptr, align 8
  %5 = alloca i32, align 4
  %6 = alloca [256 x i8], align 16
  %7 = alloca [10 x ptr], align 16
  %8 = alloca ptr, align 8
  %9 = alloca %"class.std::__cxx11::basic_string", align 8
  %10 = alloca i1, align 1
  store ptr %0, ptr %4, align 8
  store i32 %1, ptr %5, align 4
  call void @llvm.memcpy.p0.p0.i64(ptr align 16 %7, ptr align 16 @__const._Z9cpp_errorPP7gmx_cppi.ecpp, i64 80, i1 false)
  %11 = load ptr, ptr %4, align 8
  %12 = load ptr, ptr %11, align 8
  store ptr %12, ptr %8, align 8
  %13 = load ptr, ptr %8, align 8
  %14 = icmp ne ptr %13, null
  br i1 %14, label %18, label %15

15:                                               ; preds = %2
  %16 = getelementptr inbounds [10 x ptr], ptr %7, i64 0, i64 5
  %17 = load ptr, ptr %16, align 8
  store ptr %17, ptr %3, align 8
  br label %69

18:                                               ; preds = %2
  %19 = load i32, ptr %5, align 4
  %20 = icmp slt i32 %19, 0
  br i1 %20, label %24, label %21

21:                                               ; preds = %18
  %22 = load i32, ptr %5, align 4
  %23 = icmp sge i32 %22, 9
  br i1 %23, label %24, label %25

24:                                               ; preds = %21, %18
  store i32 9, ptr %5, align 4
  br label %25

25:                                               ; preds = %24, %21
  %26 = getelementptr inbounds [256 x i8], ptr %6, i64 0, i64 0
  %27 = load i32, ptr %5, align 4
  %28 = sext i32 %27 to i64
  %29 = getelementptr inbounds [10 x ptr], ptr %7, i64 0, i64 %28
  %30 = load ptr, ptr %29, align 8
  %31 = load ptr, ptr %8, align 8
  %32 = icmp ne ptr %31, null
  store i1 false, ptr %10, align 1
  br i1 %32, label %33, label %41

33:                                               ; preds = %25
  %34 = load ptr, ptr %8, align 8
  %35 = getelementptr inbounds %struct.gmx_cpp, ptr %34, i32 0, i32 6
  %36 = call noundef zeroext i1 @_ZNKSt10filesystem7__cxx114path5emptyEv(ptr noundef nonnull align 8 dereferenceable(40) %35) #14
  br i1 %36, label %41, label %37

37:                                               ; preds = %33
  %38 = load ptr, ptr %8, align 8
  %39 = getelementptr inbounds %struct.gmx_cpp, ptr %38, i32 0, i32 6
  call void @_ZNKSt10filesystem7__cxx114path6stringEv(ptr dead_on_unwind writable sret(%"class.std::__cxx11::basic_string") align 8 %9, ptr noundef nonnull align 8 dereferenceable(40) %39)
  store i1 true, ptr %10, align 1
  %40 = call noundef ptr @_ZNKSt7__cxx1112basic_stringIcSt11char_traitsIcESaIcEE5c_strEv(ptr noundef nonnull align 8 dereferenceable(32) %9) #14
  br label %42

41:                                               ; preds = %33, %25
  br label %42

42:                                               ; preds = %41, %37
  %43 = phi ptr [ %40, %37 ], [ @.str.37, %41 ]
  %44 = load ptr, ptr %8, align 8
  %45 = icmp ne ptr %44, null
  br i1 %45, label %46, label %50

46:                                               ; preds = %42
  %47 = load ptr, ptr %8, align 8
  %48 = getelementptr inbounds %struct.gmx_cpp, ptr %47, i32 0, i32 8
  %49 = load i32, ptr %48, align 8
  br label %51

50:                                               ; preds = %42
  br label %51

51:                                               ; preds = %50, %46
  %52 = phi i32 [ %49, %46 ], [ -1, %50 ]
  %53 = load ptr, ptr %8, align 8
  %54 = getelementptr inbounds %struct.gmx_cpp, ptr %53, i32 0, i32 7
  %55 = call noundef zeroext i1 @_ZNKSt7__cxx1112basic_stringIcSt11char_traitsIcESaIcEE5emptyEv(ptr noundef nonnull align 8 dereferenceable(32) %54) #14
  br i1 %55, label %60, label %56

56:                                               ; preds = %51
  %57 = load ptr, ptr %8, align 8
  %58 = getelementptr inbounds %struct.gmx_cpp, ptr %57, i32 0, i32 7
  %59 = call noundef ptr @_ZNKSt7__cxx1112basic_stringIcSt11char_traitsIcESaIcEE5c_strEv(ptr noundef nonnull align 8 dereferenceable(32) %58) #14
  br label %61

60:                                               ; preds = %51
  br label %61

61:                                               ; preds = %60, %56
  %62 = phi ptr [ %59, %56 ], [ @.str.2, %60 ]
  %63 = call i32 (ptr, ptr, ...) @sprintf(ptr noundef %26, ptr noundef @.str.36, ptr noundef %30, ptr noundef %43, i32 noundef %52, ptr noundef %62) #14
  %64 = load i1, ptr %10, align 1
  br i1 %64, label %65, label %66

65:                                               ; preds = %61
  call void @_ZNSt7__cxx1112basic_stringIcSt11char_traitsIcESaIcEED1Ev(ptr noundef nonnull align 8 dereferenceable(32) %9) #14
  br label %66

66:                                               ; preds = %65, %61
  %67 = getelementptr inbounds [256 x i8], ptr %6, i64 0, i64 0
  %68 = call noundef ptr @_Z10gmx_strdupPKc(ptr noundef %67)
  store ptr %68, ptr %3, align 8
  br label %69

69:                                               ; preds = %66, %15
  %70 = load ptr, ptr %3, align 8
  ret ptr %70
}