; Function Attrs: mustprogress uwtable
define noundef ptr @_Z9cpp_errorPP7gmx_cppi(ptr nocapture noundef readonly %0, i32 noundef %1) local_unnamed_addr #0 personality ptr @__gxx_personality_v0 {
  %3 = alloca %"class.std::allocator", align 1
  %4 = alloca [256 x i8], align 16
  %5 = alloca %"class.std::__cxx11::basic_string", align 8
  %6 = load ptr, ptr %0, align 8
  %.not = icmp eq ptr %6, null
  br i1 %.not, label %33, label %7

7:                                                ; preds = %2
  %spec.store.select = tail call i32 @llvm.umin.i32(i32 %1, i32 9)
  %8 = zext nneg i32 %spec.store.select to i64
  %9 = getelementptr inbounds [10 x ptr], ptr @__const._Z9cpp_errorPP7gmx_cppi.ecpp, i64 0, i64 %8
  %10 = load ptr, ptr %9, align 8
  %11 = getelementptr inbounds i8, ptr %6, i64 176
  %12 = tail call noundef zeroext i1 @_ZNKSt7__cxx1112basic_stringIcSt11char_traitsIcESaIcEE5emptyEv(ptr noundef nonnull align 8 dereferenceable(32) %11) #20
  br i1 %12, label %19, label %13

13:                                               ; preds = %7
  call void @llvm.lifetime.start.p0(i64 1, ptr nonnull %3)
  call void @_ZNSaIcEC1Ev(ptr noundef nonnull align 1 dereferenceable(1) %3) #20, !noalias !80
  %14 = call noundef ptr @_ZNKSt7__cxx1112basic_stringIcSt11char_traitsIcESaIcEE5c_strEv(ptr noundef nonnull align 8 dereferenceable(32) %11) #20, !noalias !83
  %15 = call noundef i64 @_ZNKSt7__cxx1112basic_stringIcSt11char_traitsIcESaIcEE6lengthEv(ptr noundef nonnull align 8 dereferenceable(32) %11) #20, !noalias !83
  invoke void @_ZNSt7__cxx1112basic_stringIcSt11char_traitsIcESaIcEEC1EPKcmRKS3_(ptr noundef nonnull align 8 dereferenceable(32) %5, ptr noundef %14, i64 noundef %15, ptr noundef nonnull align 1 dereferenceable(1) %3)
          to label %_ZNKSt10filesystem7__cxx114path6stringEv.exit unwind label %16

16:                                               ; preds = %13
  %17 = landingpad { ptr, i32 }
          cleanup
  call void @_ZNSaIcED1Ev(ptr noundef nonnull align 1 dereferenceable(1) %3) #20
  resume { ptr, i32 } %17

_ZNKSt10filesystem7__cxx114path6stringEv.exit:    ; preds = %13
  call void @_ZNSaIcED1Ev(ptr noundef nonnull align 1 dereferenceable(1) %3) #20
  call void @llvm.lifetime.end.p0(i64 1, ptr nonnull %3)
  %18 = call noundef ptr @_ZNKSt7__cxx1112basic_stringIcSt11char_traitsIcESaIcEE5c_strEv(ptr noundef nonnull align 8 dereferenceable(32) %5) #20
  br label %19

19:                                               ; preds = %_ZNKSt10filesystem7__cxx114path6stringEv.exit, %7
  %20 = phi ptr [ @.str.37, %7 ], [ %18, %_ZNKSt10filesystem7__cxx114path6stringEv.exit ]
  %21 = getelementptr inbounds i8, ptr %6, i64 248
  %22 = load i32, ptr %21, align 8
  %23 = getelementptr inbounds i8, ptr %6, i64 216
  %24 = call noundef zeroext i1 @_ZNKSt7__cxx1112basic_stringIcSt11char_traitsIcESaIcEE5emptyEv(ptr noundef nonnull align 8 dereferenceable(32) %23) #20
  br i1 %24, label %27, label %25

25:                                               ; preds = %19
  %26 = call noundef ptr @_ZNKSt7__cxx1112basic_stringIcSt11char_traitsIcESaIcEE5c_strEv(ptr noundef nonnull align 8 dereferenceable(32) %23) #20
  br label %27

27:                                               ; preds = %19, %25
  %28 = phi ptr [ %26, %25 ], [ @.str.2, %19 ]
  %29 = call i32 (ptr, ptr, ...) @sprintf(ptr noundef nonnull dereferenceable(1) %4, ptr noundef nonnull dereferenceable(1) @.str.36, ptr noundef %10, ptr noundef %20, i32 noundef %22, ptr noundef %28) #20
  br i1 %12, label %31, label %30

30:                                               ; preds = %27
  call void @_ZNSt7__cxx1112basic_stringIcSt11char_traitsIcESaIcEED1Ev(ptr noundef nonnull align 8 dereferenceable(32) %5) #20
  br label %31

31:                                               ; preds = %30, %27
  %32 = call noundef ptr @_Z10gmx_strdupPKc(ptr noundef nonnull %4)
  br label %33

33:                                               ; preds = %2, %31
  %.014 = phi ptr [ %32, %31 ], [ @.str.31, %2 ]
  ret ptr %.014
}